; Function Attrs: mustprogress uwtable
define void @_ZN5faiss17AutoTuneCriterion15set_groundtruthEiPKfPKl(ptr noundef nonnull align 8 dereferenceable(80) %0, i32 noundef %1, ptr noundef readonly %2, ptr nocapture noundef readonly %3) local_unnamed_addr #0 align 2 personality ptr @__gxx_personality_v0 {
  %5 = sext i32 %1 to i64
  %6 = getelementptr inbounds i8, ptr %0, i64 24
  store i64 %5, ptr %6, align 8
  %.not = icmp eq ptr %2, null
  br i1 %.not, label %31, label %7

7:                                                ; preds = %4
  %8 = getelementptr inbounds i8, ptr %0, i64 32
  %9 = getelementptr inbounds i8, ptr %0, i64 8
  %10 = load i64, ptr %9, align 8
  %11 = mul nsw i64 %10, %5
  %12 = getelementptr inbounds i8, ptr %0, i64 40
  %13 = load ptr, ptr %12, align 8
  %14 = load ptr, ptr %8, align 8
  %15 = ptrtoint ptr %13 to i64
  %16 = ptrtoint ptr %14 to i64
  %17 = sub i64 %15, %16
  %18 = ashr exact i64 %17, 2
  %19 = icmp ult i64 %18, %11
  br i1 %19, label %20, label %22

20:                                               ; preds = %7
  %21 = sub i64 %11, %18
  tail call void @_ZNSt6vectorIfSaIfEE17_M_default_appendEm(ptr noundef nonnull align 8 dereferenceable(24) %8, i64 noundef %21)
  %.pre = load ptr, ptr %8, align 8
  %.pre9 = load i64, ptr %9, align 8
  br label %_ZNSt6vectorIfSaIfEE6resizeEm.exit

22:                                               ; preds = %7
  %23 = icmp ugt i64 %18, %11
  br i1 %23, label %24, label %_ZNSt6vectorIfSaIfEE6resizeEm.exit

24:                                               ; preds = %22
  %25 = getelementptr inbounds float, ptr %14, i64 %11
  %.not.i.i = icmp eq ptr %13, %25
  br i1 %.not.i.i, label %_ZNSt6vectorIfSaIfEE6resizeEm.exit, label %26

26:                                               ; preds = %24
  store ptr %25, ptr %12, align 8
  br label %_ZNSt6vectorIfSaIfEE6resizeEm.exit

_ZNSt6vectorIfSaIfEE6resizeEm.exit:               ; preds = %20, %22, %24, %26
  %27 = phi i64 [ %.pre9, %20 ], [ %10, %22 ], [ %10, %24 ], [ %10, %26 ]
  %28 = phi ptr [ %.pre, %20 ], [ %14, %22 ], [ %14, %24 ], [ %14, %26 ]
  %29 = shl nsw i64 %5, 2
  %30 = mul i64 %29, %27
  tail call void @llvm.memcpy.p0.p0.i64(ptr align 4 %28, ptr nonnull align 4 %2, i64 %30, i1 false)
  br label %31

31:                                               ; preds = %_ZNSt6vectorIfSaIfEE6resizeEm.exit, %4
  %32 = getelementptr inbounds i8, ptr %0, i64 56
  %33 = getelementptr inbounds i8, ptr %0, i64 8
  %34 = load i64, ptr %33, align 8
  %35 = mul nsw i64 %34, %5
  %36 = getelementptr inbounds i8, ptr %0, i64 64
  %37 = load ptr, ptr %36, align 8
  %38 = load ptr, ptr %32, align 8
  %39 = ptrtoint ptr %37 to i64
  %40 = ptrtoint ptr %38 to i64
  %41 = sub i64 %39, %40
  %42 = ashr exact i64 %41, 3
  %43 = icmp ult i64 %42, %35
  br i1 %43, label %44, label %46

44:                                               ; preds = %31
  %45 = sub i64 %35, %42
  tail call void @_ZNSt6vectorIlSaIlEE17_M_default_appendEm(ptr noundef nonnull align 8 dereferenceable(24) %32, i64 noundef %45)
  %.pre10 = load ptr, ptr %32, align 8
  %.pre11 = load i64, ptr %33, align 8
  br label %_ZNSt6vectorIlSaIlEE6resizeEm.exit

46:                                               ; preds = %31
  %47 = icmp ugt i64 %42, %35
  br i1 %47, label %48, label %_ZNSt6vectorIlSaIlEE6resizeEm.exit

48:                                               ; preds = %46
  %49 = getelementptr inbounds i64, ptr %38, i64 %35
  %.not.i.i8 = icmp eq ptr %37, %49
  br i1 %.not.i.i8, label %_ZNSt6vectorIlSaIlEE6resizeEm.exit, label %50

50:                                               ; preds = %48
  store ptr %49, ptr %36, align 8
  br label %_ZNSt6vectorIlSaIlEE6resizeEm.exit

_ZNSt6vectorIlSaIlEE6resizeEm.exit:               ; preds = %44, %46, %48, %50
  %51 = phi i64 [ %.pre11, %44 ], [ %34, %46 ], [ %34, %48 ], [ %34, %50 ]
  %52 = phi ptr [ %.pre10, %44 ], [ %38, %46 ], [ %38, %48 ], [ %38, %50 ]
  %53 = shl nsw i64 %5, 3
  %54 = mul i64 %53, %51
  tail call void @llvm.memcpy.p0.p0.i64(ptr align 8 %52, ptr align 8 %3, i64 %54, i1 false)
  ret void
}